(dp1
S'positive'
p2
ccopy_reg
_reconstructor
p3
(creverend.thomas
BayesData
p4
c__builtin__
dict
p5
(dp6
S'all'
p7
I201
sS'own'
p8
I67
sS'just'
p9
I110
sS'can'
p10
I121
sS'being'
p11
I60
sS'over'
p12
I40
sS'yourself'
p13
I7
sS'down'
p14
I34
sS'through'
p15
I71
sS'during'
p16
I10
sS'its'
p17
I521
sS'before'
p18
I25
sS'from'
p19
I261
sS'her'
p20
I98
sS'few'
p21
I45
sS'with'
p22
I669
sS'there'
p23
I144
sS'had'
p24
I36
sS'been'
p25
I78
sS'should'
p26
I59
sS'to'
p27
I1464
sS'only'
p28
I72
sS'of'
p29
I2467
sS'too'
p30
I59
sS'my'
p31
I45
sS'under'
p32
I26
sS'ours'
p33
I1
sS'themselves'
p34
I13
sS'has'
p35
I270
sS'was'
p36
I54
sS'into'
p37
I160
sS'more'
p38
I230
sS'do'
p39
I90
sS'them'
p40
I66
sS'his'
p41
I277
sS'which'
p42
I71
sS'than'
p43
I205
sS'that'
p44
I1011
sS'very'
p45
I101
sS'am'
p46
I5
sS'but'
p47
I601
sS'were'
p48
I28
sS'they'
p49
I95
sS'not'
p50
I280
sS'yourselves'
p51
I1
sS'now'
p52
I26
sS'herself'
p53
I3
sS'him'
p54
I21
sS'nor'
p55
I5
sS'he'
p56
I111
sS'me'
p57
I29
sS'again'
p58
I25
sS'myself'
p59
I3
sS'did'
p60
I19
sS'off'
p61
I42
sS'having'
p62
I12
sS'up'
p63
I114
sS'until'
p64
I8
sS'will'
p65
I156
sS'this'
p66
I508
sS'below'
p67
I5
sS'itself'
p68
I33
sS'those'
p69
I78
sS'she'
p70
I30
sS'each'
p71
I23
sS'other'
p72
I53
sS'where'
p73
I26
sS'at'
p74
I281
sS'and'
p75
I2647
sS'because'
p76
I57
sS'then'
p77
I28
sS'doing'
p78
I9
sS'is'
p79
I1345
sS'in'
p80
I1001
sS'some'
p81
I124
sS'it'
p82
I1269
sS'an'
p83
I561
sS'as'
p84
I652
sS'himself'
p85
I19
sS'are'
p86
I279
sS'have'
p87
I206
sS'our'
p88
I54
sS'further'
p89
I7
sS'ourselves'
p90
I2
sS'out'
p91
I140
sS'these'
p92
I47
sS'what'
p93
I194
sS'for'
p94
I506
sS'no'
p95
I92
sS'when'
p96
I78
sS'while'
p97
I99
sS'same'
p98
I29
sS'your'
p99
I102
sS'how'
p100
I75
sS'does'
p101
I123
sS'above'
p102
I19
sS'between'
p103
I55
sS'you'
p104
I492
sS'if'
p105
I195
sS't'
I9
sS'be'
p106
I324
sS'we'
p107
I93
sS'who'
p108
I202
sS'whom'
p109
I4
sS'any'
p110
I69
sS'why'
p111
I20
sS'after'
p112
I28
sS'here'
p113
I50
sS'most'
p114
I184
sS'such'
p115
I55
sS'on'
p116
I329
sS'by'
p117
I293
sS'a'
I2901
sS'both'
p118
I79
sS'about'
p119
I259
sS'don'
p120
I2
sS'i'
I163
sS'theirs'
p121
I1
sS'against'
p122
I16
sS'yours'
p123
I1
sS'their'
p124
I139
sS's'
I17
sS'so'
p125
I163
sS'the'
p126
I3755
sS'or'
p127
I146
sS'once'
p128
I38
stRp129
(dp130
S'tokenCount'
p131
I31806
sS'training'
p132
(lp133
sS'name'
p134
g2
sS'pool'
p135
NsS'trainCount'
p136
I3999
sbsS'__Corpus__'
p137
g3
(g4
g5
(dp138
S'this'
p139
I1121
sS'all'
p140
I467
sS'own'
p141
I136
sS'just'
p142
I338
sS'can'
p143
I264
sS'being'
p144
I131
sS'over'
p145
I109
sS'yourself'
p146
I15
sS'down'
p147
I95
sS'through'
p148
I154
sS'during'
p149
I24
sS'its'
p150
I987
sS'before'
p151
I77
sS'from'
p152
I503
sS'her'
p153
I169
sS'whom'
p154
I10
sS'with'
p155
I1202
sS'there'
p156
I355
sS'had'
p157
I84
sS'been'
p158
I210
sS'should'
p159
I148
sS'to'
p160
I3214
sS'only'
p161
I235
sS'of'
p162
I4491
sS'too'
p163
I333
sS'my'
p164
I90
sS'under'
p165
I47
sg33
I1
sS'themselves'
p166
I21
sS'has'
p167
I526
sS'was'
p168
I166
sS'into'
p169
I308
sS'more'
p170
I542
sS'do'
p171
I220
sS'them'
p172
I141
sS'his'
p173
I489
sS'which'
p174
I172
sS'than'
p175
I494
sS'on'
p176
I680
sS'very'
p177
I200
sS'am'
p178
I8
sS'but'
p179
I1252
sS'it'
p180
I2574
sS'were'
p181
I85
sS'they'
p182
I208
sS'not'
p183
I626
sg51
I1
sS'now'
p184
I51
sS'herself'
p185
I6
sS'him'
p186
I48
sS'nor'
p187
I29
sS'he'
p188
I238
sS'me'
p189
I87
sS'myself'
p190
I10
sS'did'
p191
I63
sS'off'
p192
I130
sS'having'
p193
I27
sS'up'
p194
I283
sS'until'
p195
I20
sS'will'
p196
I279
sS'these'
p197
I91
sS'below'
p198
I8
sS'itself'
p199
I85
sS'those'
p200
I135
sS'she'
p201
I70
sS'each'
p202
I41
sS'other'
p203
I129
sS'where'
p204
I83
sS'at'
p205
I526
sS'and'
p206
I4596
sS'because'
p207
I107
sS'then'
p208
I81
sS'doing'
p209
I23
sS'is'
p210
I2685
sS'in'
p211
I1976
sS'some'
p212
I250
sS'few'
p213
I113
sS'an'
p214
I1005
sS'as'
p215
I1320
sS'himself'
p216
I33
sS'are'
p217
I563
sS'have'
p218
I486
sS'our'
p219
I72
sS'further'
p220
I11
sS'ourselves'
p221
I5
sS'out'
p222
I303
sS'again'
p223
I54
sS'what'
p224
I357
sS'for'
p225
I1074
sS'no'
p226
I292
sS'that'
p227
I2000
sS'when'
p228
I194
sS'while'
p229
I171
sS'same'
p230
I83
sS'your'
p231
I197
sS'how'
p232
I152
sS'does'
p233
I294
sS'above'
p234
I35
sS'between'
p235
I108
sS'you'
p236
I897
sS'if'
p237
I401
sS't'
I17
sS'be'
p238
I727
sS'we'
p239
I192
sS'who'
p240
I349
sS'any'
p241
I166
sS'why'
p242
I57
sS'after'
p243
I78
sS'here'
p244
I117
sS'most'
p245
I302
sS'such'
p246
I103
sS'by'
p247
I614
sS'a'
I5508
sS'both'
p248
I116
sS'about'
p249
I542
sS'don'
p250
I4
sS'i'
I436
sg121
I1
sS'against'
p251
I29
sg123
I1
sS'their'
p252
I221
sS's'
I24
sS'so'
p253
I428
sS'the'
p254
I7538
sS'or'
p255
I395
sS'once'
p256
I74
stRp257
(dp258
g131
I64139
sg132
(lp259
sg134
g137
sg135
Nsg136
I7998
sbsS'negative'
p260
g3
(g4
g5
(dp261
g139
I613
sg140
I266
sg141
I69
sg142
I228
sg143
I143
sg144
I71
sg145
I69
sg146
I8
sg147
I61
sg148
I83
sg150
I466
sg151
I52
sg152
I242
sg153
I71
sg154
I6
sg155
I533
sg156
I211
sg157
I48
sg158
I132
sg159
I89
sg160
I1750
sg161
I163
sg203
I76
sg163
I274
sg164
I45
sg165
I21
sg166
I8
sg167
I256
sg168
I112
sg169
I148
sg170
I312
sg171
I130
sg172
I75
sg173
I212
sg174
I101
sg175
I289
sg176
I351
sg177
I99
sg178
I3
sg179
I651
sg180
I1305
sg181
I57
sg182
I113
sg183
I346
sg149
I14
sg184
I25
sg185
I3
sg186
I27
sg187
I24
sg188
I127
sg189
I58
sg190
I7
sg191
I44
sg192
I88
sg194
I169
sg195
I12
sg196
I123
sg197
I44
sg198
I3
sg199
I52
sg200
I57
sg201
I40
sg202
I18
sg204
I57
sg205
I245
sg206
I1949
sg207
I50
sg208
I53
sg209
I14
sg210
I1340
sg211
I975
sg212
I126
sg213
I68
sg214
I444
sg215
I668
sg216
I14
sg217
I284
sg218
I280
sg219
I18
sg220
I4
sg221
I3
sg222
I163
sg223
I29
sg224
I163
sg225
I568
sg226
I200
sg227
I989
sg228
I116
sg229
I72
sg230
I54
sg231
I95
sg232
I77
sg233
I171
sg234
I16
sg235
I53
sg236
I405
sg237
I206
sS't'
I8
sg238
I403
sg239
I99
sg240
I147
sg241
I97
sg242
I37
sg243
I50
sg244
I67
sg245
I118
sg246
I48
sg247
I321
sS'a'
I2607
sg248
I37
sg249
I283
sg250
I2
sS'i'
I273
sg162
I2024
sg251
I13
sg193
I15
sg252
I82
sS's'
I7
sg253
I265
sg254
I3783
sg255
I249
sg256
I36
stRp262
(dp263
g131
I32333
sg132
(lp264
sg134
g260
sg135
Nsg136
I3999
sbs.